target datalayout = "e-m:e-p270:32:32-p271:32:32-p272:64:64-i64:64-i128:128-f80:128-n8:16:32:64-S128"
target triple = "x86_64-unknown-linux-gnu"

%struct.V9fsPath = type { i16, ptr }
%struct.CoMutex = type { i32, ptr, %struct.anon.3, %struct.anon.3, i32, i32, ptr }
%struct.anon.3 = type { ptr }
%struct.stat = type { i64, i64, i64, i32, i32, i32, i32, i64, i64, i64, i64, %struct.timespec, %struct.timespec, %struct.timespec, [3 x i64] }
%struct.timespec = type { i64, i64 }
%struct.QemuMutex = type { %union.pthread_mutex_t, i8 }
%union.pthread_mutex_t = type { %struct.__pthread_mutex_s }
%struct.__pthread_mutex_s = type { i32, i32, i32, i32, i32, i16, i16, %struct.__pthread_internal_list }
%struct.__pthread_internal_list = type { ptr, ptr }
%struct.V9fsFidState = type { i32, i32, %struct.V9fsPath, %union.V9fsFidOpenState, %union.V9fsFidOpenState, i32, i32, i32, i32, i8, %struct.anon.6, %struct.anon.7 }
%union.V9fsFidOpenState = type { %struct.V9fsDir }
%struct.V9fsDir = type { ptr, i32, %struct.CoMutex, %struct.QemuMutex }
%struct.anon.6 = type { ptr }
%struct.anon.7 = type { ptr }
%struct.V9fsString = type { i16, ptr }
%struct.V9fsQID = type { i8, i32, i64 }
%struct.V9fsStat = type { i16, i16, i32, %struct.V9fsQID, i32, i32, i32, i64, %struct.V9fsString, %struct.V9fsString, %struct.V9fsString, %struct.V9fsString, %struct.V9fsString, i32, i32, i32 }
%struct.dirent = type { i64, i64, i16, i8, [256 x i8] }

@.str.147 = private unnamed_addr constant [2 x i8] c"S\00", align 1
@.str.148 = private unnamed_addr constant [21 x i8] c"../qemu/hw/9pfs/9p.h\00", align 1
@__func__.v9fs_readdir_lock = private unnamed_addr constant [18 x i8] c"v9fs_readdir_lock\00", align 1
@qemu_mutex_lock_func = external global ptr, align 8

; Function Attrs: nounwind sspstrong uwtable
define internal i64 @qemu_dirent_off(ptr noundef %dent) #0 {
entry:
  %dent.addr = alloca ptr, align 8
  store ptr %dent, ptr %dent.addr, align 8
  %0 = load ptr, ptr %dent.addr, align 8
  %d_off = getelementptr inbounds %struct.dirent, ptr %0, i32 0, i32 1
  %1 = load i64, ptr %d_off, align 8
  ret i64 %1
}

; Function Attrs: nounwind sspstrong uwtable
define dso_local void @v9fs_path_free(ptr noundef %path) #0 {
entry:
  %path.addr = alloca ptr, align 8
  store ptr %path, ptr %path.addr, align 8
  %0 = load ptr, ptr %path.addr, align 8
  %data = getelementptr inbounds %struct.V9fsPath, ptr %0, i32 0, i32 1
  %1 = load ptr, ptr %data, align 8
  call void @g_free(ptr noundef %1)
  %2 = load ptr, ptr %path.addr, align 8
  %data1 = getelementptr inbounds %struct.V9fsPath, ptr %2, i32 0, i32 1
  store ptr null, ptr %data1, align 8
  %3 = load ptr, ptr %path.addr, align 8
  %size = getelementptr inbounds %struct.V9fsPath, ptr %3, i32 0, i32 0
  store i16 0, ptr %size, align 8
  ret void
}

; Function Attrs: nounwind sspstrong uwtable
define internal void @v9fs_stat_free(ptr noundef %stat) #0 {
entry:
  %stat.addr = alloca ptr, align 8
  store ptr %stat, ptr %stat.addr, align 8
  %0 = load ptr, ptr %stat.addr, align 8
  %name = getelementptr inbounds %struct.V9fsStat, ptr %0, i32 0, i32 8
  call void @v9fs_string_free(ptr noundef %name)
  %1 = load ptr, ptr %stat.addr, align 8
  %uid = getelementptr inbounds %struct.V9fsStat, ptr %1, i32 0, i32 9
  call void @v9fs_string_free(ptr noundef %uid)
  %2 = load ptr, ptr %stat.addr, align 8
  %gid = getelementptr inbounds %struct.V9fsStat, ptr %2, i32 0, i32 10
  call void @v9fs_string_free(ptr noundef %gid)
  %3 = load ptr, ptr %stat.addr, align 8
  %muid = getelementptr inbounds %struct.V9fsStat, ptr %3, i32 0, i32 11
  call void @v9fs_string_free(ptr noundef %muid)
  %4 = load ptr, ptr %stat.addr, align 8
  %extension = getelementptr inbounds %struct.V9fsStat, ptr %4, i32 0, i32 12
  call void @v9fs_string_free(ptr noundef %extension)
  ret void
}

; Function Attrs: nounwind sspstrong uwtable
define internal void @v9fs_readdir_unlock(ptr noundef %dir) #0 {
entry:
  %dir.addr = alloca ptr, align 8
  store ptr %dir, ptr %dir.addr, align 8
  %0 = load ptr, ptr %dir.addr, align 8
  %proto_version = getelementptr inbounds %struct.V9fsDir, ptr %0, i32 0, i32 1
  %1 = load i32, ptr %proto_version, align 8
  %cmp = icmp eq i32 %1, 1
  br i1 %cmp, label %if.then, label %if.else

if.then:                                          ; preds = %entry
  %2 = load ptr, ptr %dir.addr, align 8
  %readdir_mutex_u = getelementptr inbounds %struct.V9fsDir, ptr %2, i32 0, i32 2
  call void @qemu_co_mutex_unlock(ptr noundef %readdir_mutex_u)
  br label %if.end

if.else:                                          ; preds = %entry
  %3 = load ptr, ptr %dir.addr, align 8
  %readdir_mutex_L = getelementptr inbounds %struct.V9fsDir, ptr %3, i32 0, i32 3
  call void @qemu_mutex_unlock_impl(ptr noundef %readdir_mutex_L, ptr noundef @.str.148, i32 noundef 220)
  br label %if.end

if.end:                                           ; preds = %if.else, %if.then
  ret void
}

; Function Attrs: nounwind sspstrong uwtable
define internal void @v9fs_readdir_lock(ptr noundef %dir) #0 {
entry:
  %dir.addr = alloca ptr, align 8
  %_f = alloca ptr, align 8
  %tmp = alloca ptr, align 8
  %atomic-temp = alloca ptr, align 8
  store ptr %dir, ptr %dir.addr, align 8
  %0 = load ptr, ptr %dir.addr, align 8
  %proto_version = getelementptr inbounds %struct.V9fsDir, ptr %0, i32 0, i32 1
  %1 = load i32, ptr %proto_version, align 8
  %cmp = icmp eq i32 %1, 1
  br i1 %cmp, label %if.then, label %if.else

if.then:                                          ; preds = %entry
  %2 = load ptr, ptr %dir.addr, align 8
  %readdir_mutex_u = getelementptr inbounds %struct.V9fsDir, ptr %2, i32 0, i32 2
  call void @qemu_co_mutex_lock(ptr noundef %readdir_mutex_u)
  br label %if.end

if.else:                                          ; preds = %entry
  br label %while.cond

while.cond:                                       ; preds = %do.end, %if.else
  br i1 false, label %while.body, label %while.end

while.body:                                       ; preds = %while.cond
  br label %do.body

do.body:                                          ; preds = %while.body
  call void @g_assertion_message_expr(ptr noundef null, ptr noundef @.str.148, i32 noundef 211, ptr noundef @__func__.v9fs_readdir_lock, ptr noundef null) #17
  unreachable

do.end:                                           ; No predecessors!
  br label %while.cond

while.end:                                        ; preds = %while.cond
  %3 = load atomic i64, ptr @qemu_mutex_lock_func monotonic, align 8
  store i64 %3, ptr %atomic-temp, align 8
  %4 = load ptr, ptr %atomic-temp, align 8
  store ptr %4, ptr %tmp, align 8
  %5 = load ptr, ptr %tmp, align 8
  store ptr %5, ptr %_f, align 8
  %6 = load ptr, ptr %_f, align 8
  %7 = load ptr, ptr %dir.addr, align 8
  %readdir_mutex_L = getelementptr inbounds %struct.V9fsDir, ptr %7, i32 0, i32 3
  call void %6(ptr noundef %readdir_mutex_L, ptr noundef @.str.148, i32 noundef 211)
  br label %if.end

if.end:                                           ; preds = %while.end, %if.then
  ret void
}

; Function Attrs: nounwind sspstrong uwtable
define dso_local void @v9fs_path_init(ptr noundef %path) #0 {
entry:
  %path.addr = alloca ptr, align 8
  store ptr %path, ptr %path.addr, align 8
  %0 = load ptr, ptr %path.addr, align 8
  %data = getelementptr inbounds %struct.V9fsPath, ptr %0, i32 0, i32 1
  store ptr null, ptr %data, align 8
  %1 = load ptr, ptr %path.addr, align 8
  %size = getelementptr inbounds %struct.V9fsPath, ptr %1, i32 0, i32 0
  store i16 0, ptr %size, align 8
  ret void
}

; Function Attrs: nounwind sspstrong uwtable
define internal i32 @v9fs_do_readdir_with_stat(ptr noundef %pdu, ptr noundef %fidp, i32 noundef %max_count) #0 {
entry:
  %retval = alloca i32, align 4
  %pdu.addr = alloca ptr, align 8
  %fidp.addr = alloca ptr, align 8
  %max_count.addr = alloca i32, align 4
  %path = alloca %struct.V9fsPath, align 8
  %v9stat = alloca %struct.V9fsStat, align 8
  %len = alloca i32, align 4
  %err = alloca i32, align 4
  %count = alloca i32, align 4
  %stbuf = alloca %struct.stat, align 8
  %saved_dir_pos = alloca i64, align 8
  %dent = alloca ptr, align 8
  store ptr %pdu, ptr %pdu.addr, align 8
  store ptr %fidp, ptr %fidp.addr, align 8
  store i32 %max_count, ptr %max_count.addr, align 4
  store i32 0, ptr %err, align 4
  store i32 0, ptr %count, align 4
  %0 = load ptr, ptr %pdu.addr, align 8
  %1 = load ptr, ptr %fidp.addr, align 8
  %call = call i64 @v9fs_co_telldir(ptr noundef %0, ptr noundef %1)
  store i64 %call, ptr %saved_dir_pos, align 8
  %2 = load i64, ptr %saved_dir_pos, align 8
  %cmp = icmp slt i64 %2, 0
  br i1 %cmp, label %if.then, label %if.end

if.then:                                          ; preds = %entry
  %3 = load i64, ptr %saved_dir_pos, align 8
  %conv = trunc i64 %3 to i32
  store i32 %conv, ptr %retval, align 4
  br label %return

if.end:                                           ; preds = %entry
  br label %while.body

while.body:                                       ; preds = %if.end38, %if.end
  call void @v9fs_path_init(ptr noundef %path)
  %4 = load ptr, ptr %fidp.addr, align 8
  %fs = getelementptr inbounds %struct.V9fsFidState, ptr %4, i32 0, i32 3
  call void @v9fs_readdir_lock(ptr noundef %fs)
  %5 = load ptr, ptr %pdu.addr, align 8
  %6 = load ptr, ptr %fidp.addr, align 8
  %call1 = call i32 @v9fs_co_readdir(ptr noundef %5, ptr noundef %6, ptr noundef %dent)
  store i32 %call1, ptr %err, align 4
  %7 = load i32, ptr %err, align 4
  %tobool = icmp ne i32 %7, 0
  br i1 %tobool, label %if.then3, label %lor.lhs.false

lor.lhs.false:                                    ; preds = %while.body
  %8 = load ptr, ptr %dent, align 8
  %tobool2 = icmp ne ptr %8, null
  br i1 %tobool2, label %if.end4, label %if.then3

if.then3:                                         ; preds = %lor.lhs.false, %while.body
  br label %while.end

if.end4:                                          ; preds = %lor.lhs.false
  %9 = load ptr, ptr %pdu.addr, align 8
  %10 = load ptr, ptr %fidp.addr, align 8
  %path5 = getelementptr inbounds %struct.V9fsFidState, ptr %10, i32 0, i32 2
  %11 = load ptr, ptr %dent, align 8
  %d_name = getelementptr inbounds %struct.dirent, ptr %11, i32 0, i32 4
  %arraydecay = getelementptr inbounds [256 x i8], ptr %d_name, i64 0, i64 0
  %call6 = call i32 @v9fs_co_name_to_path(ptr noundef %9, ptr noundef %path5, ptr noundef %arraydecay, ptr noundef %path)
  store i32 %call6, ptr %err, align 4
  %12 = load i32, ptr %err, align 4
  %cmp7 = icmp slt i32 %12, 0
  br i1 %cmp7, label %if.then9, label %if.end10

if.then9:                                         ; preds = %if.end4
  br label %while.end

if.end10:                                         ; preds = %if.end4
  %13 = load ptr, ptr %pdu.addr, align 8
  %call11 = call i32 @v9fs_co_lstat(ptr noundef %13, ptr noundef %path, ptr noundef %stbuf)
  store i32 %call11, ptr %err, align 4
  %14 = load i32, ptr %err, align 4
  %cmp12 = icmp slt i32 %14, 0
  br i1 %cmp12, label %if.then14, label %if.end15

if.then14:                                        ; preds = %if.end10
  br label %while.end

if.end15:                                         ; preds = %if.end10
  %15 = load ptr, ptr %pdu.addr, align 8
  %16 = load ptr, ptr %dent, align 8
  %d_name16 = getelementptr inbounds %struct.dirent, ptr %16, i32 0, i32 4
  %arraydecay17 = getelementptr inbounds [256 x i8], ptr %d_name16, i64 0, i64 0
  %call18 = call i32 @stat_to_v9stat(ptr noundef %15, ptr noundef %path, ptr noundef %arraydecay17, ptr noundef %stbuf, ptr noundef %v9stat)
  store i32 %call18, ptr %err, align 4
  %17 = load i32, ptr %err, align 4
  %cmp19 = icmp slt i32 %17, 0
  br i1 %cmp19, label %if.then21, label %if.end22

if.then21:                                        ; preds = %if.end15
  br label %while.end

if.end22:                                         ; preds = %if.end15
  %18 = load i32, ptr %count, align 4
  %size = getelementptr inbounds %struct.V9fsStat, ptr %v9stat, i32 0, i32 0
  %19 = load i16, ptr %size, align 8
  %conv23 = sext i16 %19 to i32
  %add = add i32 %18, %conv23
  %add24 = add i32 %add, 2
  %20 = load i32, ptr %max_count.addr, align 4
  %cmp25 = icmp ugt i32 %add24, %20
  br i1 %cmp25, label %if.then27, label %if.end29

if.then27:                                        ; preds = %if.end22
  %21 = load ptr, ptr %fidp.addr, align 8
  %fs28 = getelementptr inbounds %struct.V9fsFidState, ptr %21, i32 0, i32 3
  call void @v9fs_readdir_unlock(ptr noundef %fs28)
  %22 = load ptr, ptr %pdu.addr, align 8
  %23 = load ptr, ptr %fidp.addr, align 8
  %24 = load i64, ptr %saved_dir_pos, align 8
  call void @v9fs_co_seekdir(ptr noundef %22, ptr noundef %23, i64 noundef %24)
  call void @v9fs_stat_free(ptr noundef %v9stat)
  call void @v9fs_path_free(ptr noundef %path)
  %25 = load i32, ptr %count, align 4
  store i32 %25, ptr %retval, align 4
  br label %return

if.end29:                                         ; preds = %if.end22
  %26 = load ptr, ptr %pdu.addr, align 8
  %27 = load i32, ptr %count, align 4
  %add30 = add i32 11, %27
  %conv31 = sext i32 %add30 to i64
  %call32 = call i64 (ptr, i64, ptr, ...) @pdu_marshal(ptr noundef %26, i64 noundef %conv31, ptr noundef @.str.147, ptr noundef %v9stat)
  %conv33 = trunc i64 %call32 to i32
  store i32 %conv33, ptr %len, align 4
  %28 = load ptr, ptr %fidp.addr, align 8
  %fs34 = getelementptr inbounds %struct.V9fsFidState, ptr %28, i32 0, i32 3
  call void @v9fs_readdir_unlock(ptr noundef %fs34)
  %29 = load i32, ptr %len, align 4
  %cmp35 = icmp slt i32 %29, 0
  br i1 %cmp35, label %if.then37, label %if.end38

if.then37:                                        ; preds = %if.end29
  %30 = load ptr, ptr %pdu.addr, align 8
  %31 = load ptr, ptr %fidp.addr, align 8
  %32 = load i64, ptr %saved_dir_pos, align 8
  call void @v9fs_co_seekdir(ptr noundef %30, ptr noundef %31, i64 noundef %32)
  call void @v9fs_stat_free(ptr noundef %v9stat)
  call void @v9fs_path_free(ptr noundef %path)
  %33 = load i32, ptr %len, align 4
  store i32 %33, ptr %retval, align 4
  br label %return

if.end38:                                         ; preds = %if.end29
  %34 = load i32, ptr %len, align 4
  %35 = load i32, ptr %count, align 4
  %add39 = add i32 %35, %34
  store i32 %add39, ptr %count, align 4
  call void @v9fs_stat_free(ptr noundef %v9stat)
  call void @v9fs_path_free(ptr noundef %path)
  %36 = load ptr, ptr %dent, align 8
  %call40 = call i64 @qemu_dirent_off(ptr noundef %36)
  store i64 %call40, ptr %saved_dir_pos, align 8
  br label %while.body

while.end:                                        ; preds = %if.then21, %if.then14, %if.then9, %if.then3
  %37 = load ptr, ptr %fidp.addr, align 8
  %fs41 = getelementptr inbounds %struct.V9fsFidState, ptr %37, i32 0, i32 3
  call void @v9fs_readdir_unlock(ptr noundef %fs41)
  call void @v9fs_path_free(ptr noundef %path)
  %38 = load i32, ptr %err, align 4
  %cmp42 = icmp slt i32 %38, 0
  br i1 %cmp42, label %if.then44, label %if.end45

if.then44:                                        ; preds = %while.end
  %39 = load i32, ptr %err, align 4
  store i32 %39, ptr %retval, align 4
  br label %return

if.end45:                                         ; preds = %while.end
  %40 = load i32, ptr %count, align 4
  store i32 %40, ptr %retval, align 4
  br label %return

return:                                           ; preds = %if.end45, %if.then44, %if.then37, %if.then27, %if.then
  %41 = load i32, ptr %retval, align 4
  ret i32 %41
}