; Function Attrs: nounwind sspstrong uwtable
define internal i32 @v9fs_do_readdir_with_stat(ptr noundef %pdu, ptr noundef %fidp, i32 noundef %max_count) #0 {
entry:
  %path = alloca %struct.V9fsPath, align 8
  %v9stat = alloca %struct.V9fsStat, align 8
  %stbuf = alloca %struct.stat, align 8
  %dent = alloca ptr, align 8
  %call = tail call i64 @v9fs_co_telldir(ptr noundef %pdu, ptr noundef %fidp) #24
  %cmp = icmp slt i64 %call, 0
  br i1 %cmp, label %if.then, label %while.body.preheader

while.body.preheader:                             ; preds = %entry
  %data.i = getelementptr inbounds nuw i8, ptr %path, i64 8
  %proto_version.i = getelementptr inbounds nuw i8, ptr %fidp, i64 32
  %readdir_mutex_L.i = getelementptr inbounds nuw i8, ptr %fidp, i64 88
  %readdir_mutex_u.i = getelementptr inbounds nuw i8, ptr %fidp, i64 40
  %path5 = getelementptr inbounds nuw i8, ptr %fidp, i64 8
  %name.i49 = getelementptr inbounds nuw i8, ptr %v9stat, i64 48
  %uid.i50 = getelementptr inbounds nuw i8, ptr %v9stat, i64 64
  %gid.i51 = getelementptr inbounds nuw i8, ptr %v9stat, i64 80
  %muid.i52 = getelementptr inbounds nuw i8, ptr %v9stat, i64 96
  %extension.i53 = getelementptr inbounds nuw i8, ptr %v9stat, i64 112
  br label %while.body

if.then:                                          ; preds = %entry
  %conv = trunc i64 %call to i32
  br label %return

while.body:                                       ; preds = %while.body.preheader, %if.end38
  %count.0 = phi i32 [ %add39, %if.end38 ], [ 0, %while.body.preheader ]
  %saved_dir_pos.0 = phi i64 [ %.val, %if.end38 ], [ %call, %while.body.preheader ]
  store ptr null, ptr %data.i, align 8
  store i16 0, ptr %path, align 8
  %0 = load i32, ptr %proto_version.i, align 8
  %cmp.i = icmp eq i32 %0, 1
  br i1 %cmp.i, label %if.then.i, label %while.end.i

if.then.i:                                        ; preds = %while.body
  call void @qemu_co_mutex_lock(ptr noundef nonnull %readdir_mutex_u.i) #24
  br label %v9fs_readdir_lock.exit

while.end.i:                                      ; preds = %while.body
  %1 = load atomic i64, ptr @qemu_mutex_lock_func monotonic, align 8
  %2 = inttoptr i64 %1 to ptr
  call void %2(ptr noundef nonnull %readdir_mutex_L.i, ptr noundef nonnull @.str.148, i32 noundef 211) #24
  br label %v9fs_readdir_lock.exit

v9fs_readdir_lock.exit:                           ; preds = %if.then.i, %while.end.i
  %call1 = call i32 @v9fs_co_readdir(ptr noundef %pdu, ptr noundef nonnull %fidp, ptr noundef nonnull %dent) #24
  %tobool = icmp eq i32 %call1, 0
  %3 = load ptr, ptr %dent, align 8
  %tobool2 = icmp ne ptr %3, null
  %or.cond = select i1 %tobool, i1 %tobool2, i1 false
  br i1 %or.cond, label %if.end4, label %while.end

if.end4:                                          ; preds = %v9fs_readdir_lock.exit
  %d_name = getelementptr inbounds nuw i8, ptr %3, i64 19
  %call6 = call i32 @v9fs_co_name_to_path(ptr noundef %pdu, ptr noundef nonnull %path5, ptr noundef nonnull %d_name, ptr noundef nonnull %path) #24
  %cmp7 = icmp slt i32 %call6, 0
  br i1 %cmp7, label %while.end, label %if.end10

if.end10:                                         ; preds = %if.end4
  %call11 = call i32 @v9fs_co_lstat(ptr noundef %pdu, ptr noundef nonnull %path, ptr noundef nonnull %stbuf) #24
  %cmp12 = icmp slt i32 %call11, 0
  br i1 %cmp12, label %while.end, label %if.end15

if.end15:                                         ; preds = %if.end10
  %4 = load ptr, ptr %dent, align 8
  %d_name16 = getelementptr inbounds nuw i8, ptr %4, i64 19
  %call18 = call i32 @stat_to_v9stat(ptr noundef %pdu, ptr noundef nonnull %path, ptr noundef nonnull %d_name16, ptr noundef nonnull %stbuf, ptr noundef nonnull %v9stat)
  %cmp19 = icmp slt i32 %call18, 0
  br i1 %cmp19, label %while.end, label %if.end22

if.end22:                                         ; preds = %if.end15
  %5 = load i16, ptr %v9stat, align 8
  %conv23 = sext i16 %5 to i32
  %add = add i32 %count.0, 2
  %add24 = add i32 %add, %conv23
  %cmp25 = icmp ugt i32 %add24, %max_count
  br i1 %cmp25, label %if.then27, label %if.end29

if.then27:                                        ; preds = %if.end22
  %6 = load i32, ptr %proto_version.i, align 8
  %cmp.i31 = icmp eq i32 %6, 1
  br i1 %cmp.i31, label %if.then.i33, label %if.else.i

if.then.i33:                                      ; preds = %if.then27
  call void @qemu_co_mutex_unlock(ptr noundef nonnull %readdir_mutex_u.i) #24
  br label %v9fs_readdir_unlock.exit

if.else.i:                                        ; preds = %if.then27
  call void @qemu_mutex_unlock_impl(ptr noundef nonnull %readdir_mutex_L.i, ptr noundef nonnull @.str.148, i32 noundef 220) #24
  br label %v9fs_readdir_unlock.exit

v9fs_readdir_unlock.exit:                         ; preds = %if.then.i33, %if.else.i
  call void @v9fs_co_seekdir(ptr noundef %pdu, ptr noundef nonnull %fidp, i64 noundef %saved_dir_pos.0) #24
  call void @v9fs_string_free(ptr noundef nonnull %name.i49) #24
  call void @v9fs_string_free(ptr noundef nonnull %uid.i50) #24
  call void @v9fs_string_free(ptr noundef nonnull %gid.i51) #24
  call void @v9fs_string_free(ptr noundef nonnull %muid.i52) #24
  call void @v9fs_string_free(ptr noundef nonnull %extension.i53) #24
  %7 = load ptr, ptr %data.i, align 8
  call void @g_free(ptr noundef %7) #24
  br label %return

if.end29:                                         ; preds = %if.end22
  %add30 = add i32 %count.0, 11
  %conv31 = sext i32 %add30 to i64
  %call32 = call i64 (ptr, i64, ptr, ...) @pdu_marshal(ptr noundef %pdu, i64 noundef %conv31, ptr noundef nonnull @.str.147, ptr noundef nonnull %v9stat)
  %conv33 = trunc i64 %call32 to i32
  %8 = load i32, ptr %proto_version.i, align 8
  %cmp.i37 = icmp eq i32 %8, 1
  br i1 %cmp.i37, label %if.then.i40, label %if.else.i38

if.then.i40:                                      ; preds = %if.end29
  call void @qemu_co_mutex_unlock(ptr noundef nonnull %readdir_mutex_u.i) #24
  br label %v9fs_readdir_unlock.exit42

if.else.i38:                                      ; preds = %if.end29
  call void @qemu_mutex_unlock_impl(ptr noundef nonnull %readdir_mutex_L.i, ptr noundef nonnull @.str.148, i32 noundef 220) #24
  br label %v9fs_readdir_unlock.exit42

v9fs_readdir_unlock.exit42:                       ; preds = %if.then.i40, %if.else.i38
  %cmp35 = icmp slt i32 %conv33, 0
  br i1 %cmp35, label %if.then37, label %if.end38

if.then37:                                        ; preds = %v9fs_readdir_unlock.exit42
  call void @v9fs_co_seekdir(ptr noundef %pdu, ptr noundef nonnull %fidp, i64 noundef %saved_dir_pos.0) #24
  call void @v9fs_string_free(ptr noundef nonnull %name.i49) #24
  call void @v9fs_string_free(ptr noundef nonnull %uid.i50) #24
  call void @v9fs_string_free(ptr noundef nonnull %gid.i51) #24
  call void @v9fs_string_free(ptr noundef nonnull %muid.i52) #24
  call void @v9fs_string_free(ptr noundef nonnull %extension.i53) #24
  %9 = load ptr, ptr %data.i, align 8
  call void @g_free(ptr noundef %9) #24
  br label %return

if.end38:                                         ; preds = %v9fs_readdir_unlock.exit42
  %add39 = add i32 %count.0, %conv33
  call void @v9fs_string_free(ptr noundef nonnull %name.i49) #24
  call void @v9fs_string_free(ptr noundef nonnull %uid.i50) #24
  call void @v9fs_string_free(ptr noundef nonnull %gid.i51) #24
  call void @v9fs_string_free(ptr noundef nonnull %muid.i52) #24
  call void @v9fs_string_free(ptr noundef nonnull %extension.i53) #24
  %10 = load ptr, ptr %data.i, align 8
  call void @g_free(ptr noundef %10) #24
  store ptr null, ptr %data.i, align 8
  store i16 0, ptr %path, align 8
  %11 = load ptr, ptr %dent, align 8
  %12 = getelementptr i8, ptr %11, i64 8
  %.val = load i64, ptr %12, align 8
  br label %while.body

while.end:                                        ; preds = %if.end15, %if.end10, %if.end4, %v9fs_readdir_lock.exit
  %err.0 = phi i32 [ %call6, %if.end4 ], [ %call11, %if.end10 ], [ %call18, %if.end15 ], [ %call1, %v9fs_readdir_lock.exit ]
  %13 = load i32, ptr %proto_version.i, align 8
  %cmp.i56 = icmp eq i32 %13, 1
  br i1 %cmp.i56, label %if.then.i59, label %if.else.i57

if.then.i59:                                      ; preds = %while.end
  call void @qemu_co_mutex_unlock(ptr noundef nonnull %readdir_mutex_u.i) #24
  br label %v9fs_readdir_unlock.exit61

if.else.i57:                                      ; preds = %while.end
  call void @qemu_mutex_unlock_impl(ptr noundef nonnull %readdir_mutex_L.i, ptr noundef nonnull @.str.148, i32 noundef 220) #24
  br label %v9fs_readdir_unlock.exit61

v9fs_readdir_unlock.exit61:                       ; preds = %if.then.i59, %if.else.i57
  %14 = load ptr, ptr %data.i, align 8
  call void @g_free(ptr noundef %14) #24
  %cmp42 = icmp slt i32 %err.0, 0
  %err.0.count.0 = select i1 %cmp42, i32 %err.0, i32 %count.0
  br label %return

return:                                           ; preds = %v9fs_readdir_unlock.exit61, %if.then37, %v9fs_readdir_unlock.exit, %if.then
  %retval.0 = phi i32 [ %conv, %if.then ], [ %count.0, %v9fs_readdir_unlock.exit ], [ %conv33, %if.then37 ], [ %err.0.count.0, %v9fs_readdir_unlock.exit61 ]
  ret i32 %retval.0
}